target datalayout = "e-m:e-p270:32:32-p271:32:32-p272:64:64-i64:64-i128:128-f80:128-n8:16:32:64-S128"
target triple = "x86_64-pc-linux-gnu"

%struct.hwloc_ps_process = type { i64, [64 x i8], [1024 x i8], ptr, i64, i32, i32, i32, ptr }
%struct.dirent = type { i64, i64, i16, i8, [256 x i8] }
%struct.hwloc_ps_thread = type { i64, ptr, i32, [16 x i8] }

@.str.6 = private unnamed_addr constant [15 x i8] c"/proc/%ld/task\00", align 1
@.str.15 = private unnamed_addr constant [2 x i8] c"r\00", align 1
@.str.17 = private unnamed_addr constant [27 x i8] c"/proc/%ld/task/%s/children\00", align 1

; Function Attrs: nounwind uwtable
define hidden void @hwloc_ps_free_process(ptr noundef %0) #0 {
  %2 = alloca ptr, align 8
  %3 = alloca i32, align 4
  store ptr %0, ptr %2, align 8, !tbaa !10
  call void @llvm.lifetime.start.p0(i64 4, ptr %3) #10
  %4 = load ptr, ptr %2, align 8, !tbaa !10
  %5 = getelementptr inbounds nuw %struct.hwloc_ps_process, ptr %4, i32 0, i32 6
  %6 = load i32, ptr %5, align 4, !tbaa !36
  %7 = icmp ne i32 %6, 0
  br i1 %7, label %8, label %39

8:                                                ; preds = %1
  store i32 0, ptr %3, align 4, !tbaa !18
  br label %9

9:                                                ; preds = %35, %8
  %10 = load i32, ptr %3, align 4, !tbaa !18
  %11 = load ptr, ptr %2, align 8, !tbaa !10
  %12 = getelementptr inbounds nuw %struct.hwloc_ps_process, ptr %11, i32 0, i32 6
  %13 = load i32, ptr %12, align 4, !tbaa !36
  %14 = icmp ult i32 %10, %13
  br i1 %14, label %15, label %38

15:                                               ; preds = %9
  %16 = load ptr, ptr %2, align 8, !tbaa !10
  %17 = getelementptr inbounds nuw %struct.hwloc_ps_process, ptr %16, i32 0, i32 8
  %18 = load ptr, ptr %17, align 8, !tbaa !29
  %19 = load i32, ptr %3, align 4, !tbaa !18
  %20 = zext i32 %19 to i64
  %21 = getelementptr inbounds nuw %struct.hwloc_ps_thread, ptr %18, i64 %20
  %22 = getelementptr inbounds nuw %struct.hwloc_ps_thread, ptr %21, i32 0, i32 1
  %23 = load ptr, ptr %22, align 8, !tbaa !33
  %24 = icmp ne ptr %23, null
  br i1 %24, label %25, label %34

25:                                               ; preds = %15
  %26 = load ptr, ptr %2, align 8, !tbaa !10
  %27 = getelementptr inbounds nuw %struct.hwloc_ps_process, ptr %26, i32 0, i32 8
  %28 = load ptr, ptr %27, align 8, !tbaa !29
  %29 = load i32, ptr %3, align 4, !tbaa !18
  %30 = zext i32 %29 to i64
  %31 = getelementptr inbounds nuw %struct.hwloc_ps_thread, ptr %28, i64 %30
  %32 = getelementptr inbounds nuw %struct.hwloc_ps_thread, ptr %31, i32 0, i32 1
  %33 = load ptr, ptr %32, align 8, !tbaa !33
  call void @hwloc_bitmap_free(ptr noundef %33)
  br label %34

34:                                               ; preds = %25, %15
  br label %35

35:                                               ; preds = %34
  %36 = load i32, ptr %3, align 4, !tbaa !18
  %37 = add i32 %36, 1
  store i32 %37, ptr %3, align 4, !tbaa !18
  br label %9, !llvm.loop !46

38:                                               ; preds = %9
  br label %39

39:                                               ; preds = %38, %1
  %40 = load ptr, ptr %2, align 8, !tbaa !10
  %41 = getelementptr inbounds nuw %struct.hwloc_ps_process, ptr %40, i32 0, i32 8
  %42 = load ptr, ptr %41, align 8, !tbaa !29
  call void @free(ptr noundef %42) #10
  %43 = load ptr, ptr %2, align 8, !tbaa !10
  %44 = getelementptr inbounds nuw %struct.hwloc_ps_process, ptr %43, i32 0, i32 3
  %45 = load ptr, ptr %44, align 8, !tbaa !38
  call void @hwloc_bitmap_free(ptr noundef %45)
  call void @llvm.lifetime.end.p0(i64 4, ptr %3) #10
  ret void
}

; Function Attrs: nounwind uwtable
define hidden i32 @hwloc_ps_foreach_child(ptr noundef %0, ptr noundef %1, i64 noundef %2, ptr noundef %3, ptr noundef %4, i64 noundef %5, ptr noundef %6, i64 noundef %7) #0 {
  %9 = alloca ptr, align 8
  %10 = alloca ptr, align 8
  %11 = alloca i64, align 8
  %12 = alloca ptr, align 8
  %13 = alloca ptr, align 8
  %14 = alloca i64, align 8
  %15 = alloca ptr, align 8
  %16 = alloca i64, align 8
  %17 = alloca %struct.hwloc_ps_process, align 8
  %18 = alloca ptr, align 8
  %19 = alloca [512 x i8], align 16
  %20 = alloca ptr, align 8
  %21 = alloca [4096 x i8], align 16
  %22 = alloca ptr, align 8
  %23 = alloca ptr, align 8
  %24 = alloca i64, align 8
  %25 = alloca i32, align 4
  %26 = alloca ptr, align 8
  %27 = alloca i64, align 8
  store ptr %0, ptr %9, align 8, !tbaa !3
  store ptr %1, ptr %10, align 8, !tbaa !8
  store i64 %2, ptr %11, align 8, !tbaa !12
  store ptr %3, ptr %12, align 8, !tbaa !47
  store ptr %4, ptr %13, align 8, !tbaa !47
  store i64 %5, ptr %14, align 8, !tbaa !12
  store ptr %6, ptr %15, align 8, !tbaa !19
  store i64 %7, ptr %16, align 8, !tbaa !12
  call void @llvm.lifetime.start.p0(i64 1136, ptr %17) #10
  call void @llvm.lifetime.start.p0(i64 8, ptr %18) #10
  call void @llvm.lifetime.start.p0(i64 512, ptr %19) #10
  %28 = load i64, ptr %11, align 8, !tbaa !12
  %29 = getelementptr inbounds nuw %struct.hwloc_ps_process, ptr %17, i32 0, i32 0
  store i64 %28, ptr %29, align 8, !tbaa !14
  %30 = getelementptr inbounds nuw %struct.hwloc_ps_process, ptr %17, i32 0, i32 3
  store ptr null, ptr %30, align 8, !tbaa !38
  %31 = getelementptr inbounds nuw %struct.hwloc_ps_process, ptr %17, i32 0, i32 6
  store i32 0, ptr %31, align 4, !tbaa !36
  %32 = getelementptr inbounds nuw %struct.hwloc_ps_process, ptr %17, i32 0, i32 7
  store i32 0, ptr %32, align 8, !tbaa !35
  %33 = getelementptr inbounds nuw %struct.hwloc_ps_process, ptr %17, i32 0, i32 8
  store ptr null, ptr %33, align 8, !tbaa !29
  %34 = load ptr, ptr %9, align 8, !tbaa !3
  %35 = load ptr, ptr %10, align 8, !tbaa !8
  %36 = load i64, ptr %14, align 8, !tbaa !12
  %37 = call i32 @hwloc_ps_read_process(ptr noundef %34, ptr noundef %35, ptr noundef %17, i64 noundef %36)
  %38 = icmp slt i32 %37, 0
  br i1 %38, label %39, label %40

39:                                               ; preds = %8
  br label %67

40:                                               ; preds = %8
  %41 = load ptr, ptr %15, align 8, !tbaa !19
  %42 = icmp ne ptr %41, null
  br i1 %42, label %43, label %50

43:                                               ; preds = %40
  %44 = getelementptr inbounds nuw %struct.hwloc_ps_process, ptr %17, i32 0, i32 1
  %45 = getelementptr inbounds [64 x i8], ptr %44, i64 0, i64 0
  %46 = load ptr, ptr %15, align 8, !tbaa !19
  %47 = call ptr @strstr(ptr noundef %45, ptr noundef %46) #12
  %48 = icmp ne ptr %47, null
  br i1 %48, label %50, label %49

49:                                               ; preds = %43
  br label %67

50:                                               ; preds = %43, %40
  %51 = load i64, ptr %16, align 8, !tbaa !12
  %52 = icmp ne i64 %51, -1
  br i1 %52, label %53, label %63

53:                                               ; preds = %50
  %54 = getelementptr inbounds nuw %struct.hwloc_ps_process, ptr %17, i32 0, i32 4
  %55 = load i64, ptr %54, align 8, !tbaa !22
  %56 = icmp ne i64 %55, -1
  br i1 %56, label %57, label %63

57:                                               ; preds = %53
  %58 = getelementptr inbounds nuw %struct.hwloc_ps_process, ptr %17, i32 0, i32 4
  %59 = load i64, ptr %58, align 8, !tbaa !22
  %60 = load i64, ptr %16, align 8, !tbaa !12
  %61 = icmp ne i64 %59, %60
  br i1 %61, label %62, label %63

62:                                               ; preds = %57
  br label %67

63:                                               ; preds = %57, %53, %50
  %64 = load ptr, ptr %12, align 8, !tbaa !47
  %65 = load ptr, ptr %9, align 8, !tbaa !3
  %66 = load ptr, ptr %13, align 8, !tbaa !47
  call void %64(ptr noundef %65, ptr noundef %17, ptr noundef %66)
  br label %67

67:                                               ; preds = %63, %62, %49, %39
  call void @hwloc_ps_free_process(ptr noundef %17)
  %68 = getelementptr inbounds [512 x i8], ptr %19, i64 0, i64 0
  %69 = getelementptr inbounds nuw %struct.hwloc_ps_process, ptr %17, i32 0, i32 0
  %70 = load i64, ptr %69, align 8, !tbaa !14
  %71 = call i32 (ptr, i64, ptr, ...) @snprintf(ptr noundef %68, i64 noundef 512, ptr noundef @.str.6, i64 noundef %70) #10
  %72 = getelementptr inbounds [512 x i8], ptr %19, i64 0, i64 0
  %73 = call ptr @opendir(ptr noundef %72)
  store ptr %73, ptr %18, align 8, !tbaa !23
  %74 = load ptr, ptr %18, align 8, !tbaa !23
  %75 = icmp ne ptr %74, null
  br i1 %75, label %76, label %132

76:                                               ; preds = %67
  call void @llvm.lifetime.start.p0(i64 8, ptr %20) #10
  br label %77

77:                                               ; preds = %128, %126, %76
  %78 = load ptr, ptr %18, align 8, !tbaa !23
  %79 = call ptr @readdir(ptr noundef %78)
  store ptr %79, ptr %20, align 8, !tbaa !25
  %80 = icmp ne ptr %79, null
  br i1 %80, label %81, label %129

81:                                               ; preds = %77
  call void @llvm.lifetime.start.p0(i64 4096, ptr %21) #10
  call void @llvm.lifetime.start.p0(i64 8, ptr %22) #10
  call void @llvm.lifetime.start.p0(i64 8, ptr %23) #10
  call void @llvm.lifetime.start.p0(i64 8, ptr %24) #10
  %82 = getelementptr inbounds [512 x i8], ptr %19, i64 0, i64 0
  %83 = getelementptr inbounds nuw %struct.hwloc_ps_process, ptr %17, i32 0, i32 0
  %84 = load i64, ptr %83, align 8, !tbaa !14
  %85 = load ptr, ptr %20, align 8, !tbaa !25
  %86 = getelementptr inbounds nuw %struct.dirent, ptr %85, i32 0, i32 4
  %87 = getelementptr inbounds [256 x i8], ptr %86, i64 0, i64 0
  %88 = call i32 (ptr, i64, ptr, ...) @snprintf(ptr noundef %82, i64 noundef 512, ptr noundef @.str.17, i64 noundef %84, ptr noundef %87) #10
  %89 = getelementptr inbounds [512 x i8], ptr %19, i64 0, i64 0
  %90 = call noalias ptr @fopen(ptr noundef %89, ptr noundef @.str.15)
  store ptr %90, ptr %22, align 8, !tbaa !41
  %91 = load ptr, ptr %22, align 8, !tbaa !41
  %92 = icmp ne ptr %91, null
  br i1 %92, label %94, label %93

93:                                               ; preds = %81
  store i32 3, ptr %25, align 4
  br label %126, !llvm.loop !49

94:                                               ; preds = %81
  %95 = getelementptr inbounds [4096 x i8], ptr %21, i64 0, i64 0
  %96 = load ptr, ptr %22, align 8, !tbaa !41
  %97 = call i64 @fread(ptr noundef %95, i64 noundef 1, i64 noundef 4095, ptr noundef %96)
  store i64 %97, ptr %24, align 8, !tbaa !12
  %98 = load ptr, ptr %22, align 8, !tbaa !41
  %99 = call i32 @fclose(ptr noundef %98)
  %100 = load i64, ptr %24, align 8, !tbaa !12
  %101 = getelementptr inbounds nuw [4096 x i8], ptr %21, i64 0, i64 %100
  store i8 0, ptr %101, align 1, !tbaa !21
  %102 = getelementptr inbounds [4096 x i8], ptr %21, i64 0, i64 0
  store ptr %102, ptr %23, align 8, !tbaa !19
  br label %103

103:                                              ; preds = %124, %94
  br label %104

104:                                              ; preds = %103
  call void @llvm.lifetime.start.p0(i64 8, ptr %26) #10
  call void @llvm.lifetime.start.p0(i64 8, ptr %27) #10
  %105 = load ptr, ptr %23, align 8, !tbaa !19
  %106 = call i64 @strtoul(ptr noundef %105, ptr noundef %26, i32 noundef 10) #10
  store i64 %106, ptr %27, align 8, !tbaa !12
  %107 = load ptr, ptr %26, align 8, !tbaa !19
  %108 = load ptr, ptr %23, align 8, !tbaa !19
  %109 = icmp eq ptr %107, %108
  br i1 %109, label %110, label %111

110:                                              ; preds = %104
  store i32 6, ptr %25, align 4
  br label %122

111:                                              ; preds = %104
  %112 = load ptr, ptr %9, align 8, !tbaa !3
  %113 = load ptr, ptr %10, align 8, !tbaa !8
  %114 = load i64, ptr %27, align 8, !tbaa !12
  %115 = load ptr, ptr %12, align 8, !tbaa !47
  %116 = load ptr, ptr %13, align 8, !tbaa !47
  %117 = load i64, ptr %14, align 8, !tbaa !12
  %118 = load ptr, ptr %15, align 8, !tbaa !19
  %119 = load i64, ptr %16, align 8, !tbaa !12
  %120 = call i32 @hwloc_ps_foreach_child(ptr noundef %112, ptr noundef %113, i64 noundef %114, ptr noundef %115, ptr noundef %116, i64 noundef %117, ptr noundef %118, i64 noundef %119)
  %121 = load ptr, ptr %26, align 8, !tbaa !19
  store ptr %121, ptr %23, align 8, !tbaa !19
  store i32 0, ptr %25, align 4
  br label %122

122:                                              ; preds = %111, %110
  call void @llvm.lifetime.end.p0(i64 8, ptr %27) #10
  call void @llvm.lifetime.end.p0(i64 8, ptr %26) #10
  %123 = load i32, ptr %25, align 4
  switch i32 %123, label %133 [
    i32 0, label %124
    i32 6, label %125
  ]

124:                                              ; preds = %122
  br label %103

125:                                              ; preds = %122
  store i32 0, ptr %25, align 4
  br label %126

126:                                              ; preds = %125, %93
  call void @llvm.lifetime.end.p0(i64 8, ptr %24) #10
  call void @llvm.lifetime.end.p0(i64 8, ptr %23) #10
  call void @llvm.lifetime.end.p0(i64 8, ptr %22) #10
  call void @llvm.lifetime.end.p0(i64 4096, ptr %21) #10
  %127 = load i32, ptr %25, align 4
  switch i32 %127, label %133 [
    i32 0, label %128
    i32 3, label %77
  ]

128:                                              ; preds = %126
  br label %77, !llvm.loop !49

129:                                              ; preds = %77
  %130 = load ptr, ptr %18, align 8, !tbaa !23
  %131 = call i32 @closedir(ptr noundef %130)
  call void @llvm.lifetime.end.p0(i64 8, ptr %20) #10
  br label %132

132:                                              ; preds = %129, %67
  store i32 1, ptr %25, align 4
  call void @llvm.lifetime.end.p0(i64 512, ptr %19) #10
  call void @llvm.lifetime.end.p0(i64 8, ptr %18) #10
  call void @llvm.lifetime.end.p0(i64 1136, ptr %17) #10
  ret i32 0

133:                                              ; preds = %126, %122
  unreachable
}