; Function Attrs: nounwind uwtable
define hidden noundef i32 @hwloc_ps_foreach_child(ptr noundef %0, ptr noundef %1, i64 noundef %2, ptr noundef readonly captures(none) %3, ptr noundef %4, i64 noundef %5, ptr noundef captures(address_is_null) %6, i64 noundef %7) local_unnamed_addr #0 {
  %9 = alloca %struct.hwloc_ps_process, align 8
  %10 = alloca [512 x i8], align 16
  %11 = alloca [4096 x i8], align 16
  %12 = alloca ptr, align 8
  call void @llvm.lifetime.start.p0(i64 1136, ptr nonnull %9) #15
  call void @llvm.lifetime.start.p0(i64 512, ptr nonnull %10) #15
  store i64 %2, ptr %9, align 8, !tbaa !3
  %13 = getelementptr inbounds nuw i8, ptr %9, i64 1096
  store ptr null, ptr %13, align 8, !tbaa !27
  %14 = getelementptr inbounds nuw i8, ptr %9, i64 1116
  store i32 0, ptr %14, align 4, !tbaa !25
  %15 = getelementptr inbounds nuw i8, ptr %9, i64 1120
  store i32 0, ptr %15, align 8, !tbaa !24
  %16 = getelementptr inbounds nuw i8, ptr %9, i64 1128
  store ptr null, ptr %16, align 8, !tbaa !18
  %17 = call i32 @hwloc_ps_read_process(ptr noundef %0, ptr noundef %1, ptr noundef nonnull %9, i64 noundef %5)
  %18 = icmp slt i32 %17, 0
  br i1 %18, label %30, label %19

19:                                               ; preds = %8
  %.not = icmp eq ptr %6, null
  br i1 %.not, label %23, label %20

20:                                               ; preds = %19
  %21 = getelementptr inbounds nuw i8, ptr %9, i64 8
  %22 = call ptr @strstr(ptr noundef nonnull dereferenceable(1) %21, ptr noundef nonnull dereferenceable(1) %6) #17
  %.not38 = icmp eq ptr %22, null
  br i1 %.not38, label %30, label %23

23:                                               ; preds = %20, %19
  %24 = icmp eq i64 %7, -1
  %25 = getelementptr inbounds nuw i8, ptr %9, i64 1104
  %26 = load i64, ptr %25, align 8
  %27 = icmp eq i64 %26, -1
  %.not39 = icmp eq i64 %26, %7
  %28 = or i1 %27, %.not39
  %or.cond43 = select i1 %24, i1 true, i1 %28
  br i1 %or.cond43, label %29, label %30

29:                                               ; preds = %23
  call void %3(ptr noundef %0, ptr noundef nonnull %9, ptr noundef %4) #15
  br label %30

30:                                               ; preds = %23, %20, %8, %29
  %31 = load i32, ptr %14, align 4, !tbaa !25
  %.not.i = icmp eq i32 %31, 0
  br i1 %.not.i, label %hwloc_ps_free_process.exit, label %.lr.ph.i

.lr.ph.i:                                         ; preds = %30, %37
  %32 = phi i32 [ %38, %37 ], [ %31, %30 ]
  %indvars.iv.i = phi i64 [ %indvars.iv.next.i, %37 ], [ 0, %30 ]
  %33 = load ptr, ptr %16, align 8, !tbaa !18
  %34 = getelementptr inbounds nuw %struct.hwloc_ps_thread, ptr %33, i64 %indvars.iv.i, i32 1
  %35 = load ptr, ptr %34, align 8, !tbaa !22
  %.not10.i = icmp eq ptr %35, null
  br i1 %.not10.i, label %37, label %36

36:                                               ; preds = %.lr.ph.i
  call void @hwloc_bitmap_free(ptr noundef nonnull %35) #15
  %.pre.i = load i32, ptr %14, align 4, !tbaa !25
  br label %37

37:                                               ; preds = %36, %.lr.ph.i
  %38 = phi i32 [ %32, %.lr.ph.i ], [ %.pre.i, %36 ]
  %indvars.iv.next.i = add nuw nsw i64 %indvars.iv.i, 1
  %39 = zext i32 %38 to i64
  %40 = icmp samesign ult i64 %indvars.iv.next.i, %39
  br i1 %40, label %.lr.ph.i, label %hwloc_ps_free_process.exit, !llvm.loop !30

hwloc_ps_free_process.exit:                       ; preds = %37, %30
  %41 = load ptr, ptr %16, align 8, !tbaa !18
  call void @free(ptr noundef %41) #15
  %42 = load ptr, ptr %13, align 8, !tbaa !27
  call void @hwloc_bitmap_free(ptr noundef %42) #15
  %43 = load i64, ptr %9, align 8, !tbaa !3
  %44 = call i32 (ptr, i64, ptr, ...) @snprintf(ptr noundef nonnull dereferenceable(1) %10, i64 noundef 512, ptr noundef nonnull @.str.6, i64 noundef %43) #15
  %45 = call ptr @opendir(ptr noundef nonnull %10)
  %.not40 = icmp eq ptr %45, null
  br i1 %.not40, label %68, label %.preheader

.preheader:                                       ; preds = %hwloc_ps_free_process.exit
  %46 = call ptr @readdir(ptr noundef nonnull %45) #15
  %.not4150 = icmp eq ptr %46, null
  br i1 %.not4150, label %._crit_edge, label %.lr.ph51

.lr.ph51:                                         ; preds = %.preheader, %65
  %47 = phi ptr [ %66, %65 ], [ %46, %.preheader ]
  call void @llvm.lifetime.start.p0(i64 4096, ptr nonnull %11) #15
  %48 = load i64, ptr %9, align 8, !tbaa !3
  %49 = getelementptr inbounds nuw i8, ptr %47, i64 19
  %50 = call i32 (ptr, i64, ptr, ...) @snprintf(ptr noundef nonnull dereferenceable(1) %10, i64 noundef 512, ptr noundef nonnull @.str.17, i64 noundef %48, ptr noundef nonnull %49) #15
  %51 = call noalias ptr @fopen(ptr noundef nonnull %10, ptr noundef nonnull @.str.15)
  %.not42 = icmp eq ptr %51, null
  br i1 %.not42, label %65, label %52, !llvm.loop !32

52:                                               ; preds = %.lr.ph51
  %53 = call i64 @fread(ptr noundef nonnull %11, i64 noundef 1, i64 noundef 4095, ptr noundef nonnull %51)
  %54 = call i32 @fclose(ptr noundef nonnull %51)
  %55 = getelementptr inbounds nuw [4096 x i8], ptr %11, i64 0, i64 %53
  store i8 0, ptr %55, align 1, !tbaa !12
  call void @llvm.lifetime.start.p0(i64 8, ptr nonnull %12) #15
  %56 = call i64 @strtoul(ptr noundef nonnull %11, ptr noundef nonnull %12, i32 noundef 10) #15
  %57 = load ptr, ptr %12, align 8, !tbaa !14
  %58 = icmp eq ptr %57, %11
  br i1 %58, label %.thread, label %.lr.ph

.thread:                                          ; preds = %.lr.ph, %52
  call void @llvm.lifetime.end.p0(i64 8, ptr nonnull %12) #15
  br label %65

.lr.ph:                                           ; preds = %52, %.lr.ph
  %59 = phi ptr [ %63, %.lr.ph ], [ %57, %52 ]
  %60 = phi i64 [ %62, %.lr.ph ], [ %56, %52 ]
  %61 = call i32 @hwloc_ps_foreach_child(ptr noundef %0, ptr noundef %1, i64 noundef %60, ptr noundef %3, ptr noundef %4, i64 noundef %5, ptr noundef %6, i64 noundef %7)
  call void @llvm.lifetime.end.p0(i64 8, ptr nonnull %12) #15
  call void @llvm.lifetime.start.p0(i64 8, ptr nonnull %12) #15
  %62 = call i64 @strtoul(ptr noundef %59, ptr noundef nonnull %12, i32 noundef 10) #15
  %63 = load ptr, ptr %12, align 8, !tbaa !14
  %64 = icmp eq ptr %63, %59
  br i1 %64, label %.thread, label %.lr.ph

65:                                               ; preds = %.thread, %.lr.ph51
  call void @llvm.lifetime.end.p0(i64 4096, ptr nonnull %11) #15
  %66 = call ptr @readdir(ptr noundef nonnull %45) #15
  %.not41 = icmp eq ptr %66, null
  br i1 %.not41, label %._crit_edge, label %.lr.ph51

._crit_edge:                                      ; preds = %65, %.preheader
  %67 = call i32 @closedir(ptr noundef nonnull %45)
  br label %68

68:                                               ; preds = %._crit_edge, %hwloc_ps_free_process.exit
  call void @llvm.lifetime.end.p0(i64 512, ptr nonnull %10) #15
  call void @llvm.lifetime.end.p0(i64 1136, ptr nonnull %9) #15
  ret i32 0
}